(dp0
S'METTS MARK'
p1
(dp2
S'to_messages'
p3
I807
sS'deferral_payments'
p4
I0
sS'Norm_Email'
p5
F0.04665071770334928
sS'expenses'
p6
F0.4118321195022199
sS'poi'
p7
I00
sS'deferred_income'
p8
I0
sS'email_address'
p9
S'mark.metts@enron.com'
p10
sS'long_term_incentive'
p11
I0
sS'restricted_stock_deferred'
p12
I0
sS'shared_receipt_with_poi'
p13
I702
sS'loan_advances'
p14
I0
sS'from_messages'
p15
I29
sS'other'
p16
F0.0001677650385960943
sS'director_fees'
p17
I0
sS'bonus'
p18
F0.06683480453972257
sS'total_stock_value'
p19
F0.012799625895430116
sS'from_poi_to_this_person'
p20
I38
sS'from_this_person_to_poi'
p21
I1
sS'restricted_stock'
p22
F0.18366452871857167
sS'salary'
p23
F0.32887760953779366
sS'Norm_Email_T'
p24
F0.048327137546468404
sS'total_payments'
p25
F0.010251860171981084
sS'Norm_Email_F'
p26
F1.3448275862068966
sS'exercised_stock_options'
p27
I0
ssS'BAXTER JOHN C'
p28
(dp29
g3
S'NaN'
p30
sg4
F0.21414199271306028
sg5
I0
sg6
F0.048343284561380484
sg7
I00
sg8
F0.604623649192691
sg9
g30
sg11
F0.2988118500196308
sg12
I0
sg13
g30
sg14
I0
sg15
g30
sg16
F0.25679257764224867
sg17
I0
sg18
F0.1424968474148802
sg19
F0.21701822618471178
sg20
g30
sg21
g30
sg22
F0.377008789035058
sg23
F0.24003381404615312
sg24
I0
sg25
F0.054405313961823645
sg26
I0
sg27
F0.19441664733591246
ssS'ELLIOTT STEVEN'
p31
(dp32
g3
g30
sg4
I0
sg5
I0
sg6
F0.3429521247512193
sg7
I00
sg8
F0.8858598685391658
sg9
S'steven.elliott@enron.com'
p33
sg11
I0
sg12
I0
sg13
g30
sg14
I0
sg15
g30
sg16
F0.0012509016888186339
sg17
I0
sg18
F0.03530895334174023
sg19
F0.1367702447875685
sg20
g30
sg21
g30
sg22
F0.2529560322521056
sg23
F0.15346319391491212
sg24
I0
sg25
F0.002043044855937851
sg26
I0
sg27
F0.1422927620619175
ssS'CORDES WILLIAM R'
p34
(dp35
g3
I764
sg4
I0
sg5
F0.01288659793814433
sg6
I0
sg7
I00
sg8
I0
sg9
S'bill.cordes@enron.com'
p36
sg11
I0
sg12
I0
sg13
I58
sg14
I0
sg15
I12
sg16
I0
sg17
I0
sg18
I0
sg19
F0.022018029761909728
sg20
I10
sg21
I0
sg22
F0.1722211972417199
sg23
I0
sg24
F0.013089005235602094
sg25
I0
sg26
F0.8333333333333334
sg27
F0.01888377145164147
ssS'HANNON KEVIN P'
p37
(dp38
g3
I1045
sg4
I0
sg5
F0.04921077065923862
sg6
F0.14824486582245258
sg7
I01
sg8
F0.11056633080761159
sg9
S'kevin.hannon@enron.com'
p39
sg11
F0.304910099284683
sg12
I0
sg13
I1035
sg14
I0
sg15
I32
sg16
F0.0010953956605227145
sg17
I0
sg18
F0.18032786885245902
sg19
F0.13091784215016056
sg20
I32
sg21
I21
sg22
F0.19909693459426664
sg23
F0.21859934586565669
sg24
F0.05071770334928229
sg25
F0.0027861625056748696
sg26
F1.65625
sg27
F0.16115009597148053
ssS'MORDAUNT KRISTINA M'
p40
(dp41
g3
g30
sg4
I0
sg5
I0
sg6
F0.15252717450735953
sg7
I00
sg8
I0
sg9
S'kristina.mordaunt@enron.com'
p42
sg11
I0
sg12
I0
sg13
g30
sg14
I0
sg15
g30
sg16
F0.00013600744498383017
sg17
I0
sg18
F0.03215636822194199
sg19
F0.005138994206615752
sg20
g30
sg21
g30
sg22
F0.16198146927384854
sg23
F0.2400257116389279
sg24
I0
sg25
F0.006067749652869127
sg26
I0
sg27
I0
ssS'MEYER ROCKFORD G'
p43
(dp44
g3
I232
sg4
F0.2987564112970538
sg5
F0.0
sg6
I0
sg7
I00
sg8
I0
sg9
S'rockford.meyer@enron.com'
p45
sg11
I0
sg12
I0
sg13
I22
sg14
I0
sg15
I28
sg16
I0
sg17
I0
sg18
I0
sg19
F0.020343461798999724
sg20
I0
sg21
I0
sg22
F0.17660034006319408
sg23
I0
sg24
F0.0
sg25
F0.01784555171080395
sg26
F0.0
sg27
F0.014272895238997564
ssS'MCMAHON JEFFREY'
p46
(dp47
g3
I2355
sg4
I0
sg5
F0.03495630461922597
sg6
F0.5990857992695142
sg7
I00
sg8
I0
sg9
S'jeffrey.mcmahon@enron.com'
p48
sg11
F0.12324921087795603
sg12
I0
sg13
I2228
sg14
I0
sg15
I48
sg16
F0.028702590328876426
sg17
I0
sg18
F0.31904161412358134
sg19
F0.03472641212889136
sg20
I58
sg21
I26
sg22
F0.1821523369785786
sg23
F0.3330728559455014
sg24
F0.035668789808917196
sg25
F0.03958707081315314
sg26
F1.75
sg27
F0.032050249731410005
ssS'HORTON STANLEY C'
p49
(dp50
g3
I2350
sg4
F0.49534649719962814
sg5
F0.017236342389716622
sg6
I0
sg7
I00
sg8
I0
sg9
S'stanley.horton@enron.com'
p51
sg11
I0
sg12
I0
sg13
I1074
sg14
I0
sg15
I1073
sg16
I0
sg17
I0
sg18
I0
sg19
F0.1485273955693404
sg20
I44
sg21
I15
sg22
F0.26779452526818787
sg23
I0
sg24
F0.025106382978723404
sg25
F0.03024065986321216
sg26
F0.05498602050326188
sg27
F0.15161650866110474
ssS'PIPER GREGORY F'
p52
(dp53
g3
I1238
sg4
F0.18876451300178115
sg5
F0.07465753424657534
sg6
F0.18769109638475165
sg7
I00
sg8
F0.9907237024814524
sg9
S'greg.piper@enron.com'
p54
sg11
I0
sg12
F0.07990329204861842
sg13
I742
sg14
I0
sg15
I222
sg16
F7.49054487632734e-05
sg17
I0
sg18
F0.0416141235813367
sg19
F0.01880578964499269
sg20
I61
sg21
I48
sg22
F0.17355822096552703
sg23
F0.17700518824142653
sg24
F0.08804523424878836
sg25
F0.01677758744731116
sg26
F0.49099099099099097
sg27
F0.025535084350754092
ssS'HUMPHREY GENE E'
p55
(dp56
g3
I128
sg4
F0.46971601151085307
sg5
F0.18620689655172415
sg6
F0.02119720928198062
sg7
I00
sg8
I0
sg9
S'gene.humphrey@enron.com'
p57
sg11
I0
sg12
I0
sg13
I119
sg14
I0
sg15
I17
sg16
I0
sg17
I0
sg18
I0
sg19
F0.04733801735767246
sg20
I10
sg21
I17
sg22
I0
sg23
F0.11725713709543105
sg24
F0.2109375
sg25
F0.029935174072873657
sg26
F1.588235294117647
sg27
F0.06636996445984913
ssS'UMANOFF ADAM S'
p58
(dp59
g3
I111
sg4
I0
sg5
F0.09302325581395349
sg6
F0.2317170789318286
sg7
I00
sg8
I0
sg9
S'adam.umanoff@enron.com'
p60
sg11
I0
sg12
I0
sg13
I41
sg14
I0
sg15
I18
sg16
I0
sg17
I0
sg18
F0.09063682219419925
sg19
I0
sg20
I12
sg21
I0
sg22
I0
sg23
F0.2593778611625514
sg24
F0.10810810810810811
sg25
F0.010914608677926619
sg26
F0.6666666666666666
sg27
I0
ssS'BLACHMAN JEREMY M'
p61
(dp62
g3
I2475
sg4
I0
sg5
F0.010847730012053034
sg6
F0.367692408634604
sg7
I00
sg8
I0
sg9
S'jeremy.blachman@enron.com'
p63
sg11
F0.15022740386481176
sg12
I0
sg13
I2326
sg14
I0
sg15
I14
sg16
F2.6062462842891518e-05
sg17
I0
sg18
F0.09836065573770492
sg19
F0.02031255902983289
sg20
I25
sg21
I2
sg22
F0.16086038245362366
sg23
F0.22332845088275727
sg24
F0.01090909090909091
sg25
F0.019454363714746223
sg26
F1.9285714285714286
sg27
F0.02218738691072051
ssS'SUNDE MARTIN'
p64
(dp65
g3
I2647
sg4
I0
sg5
F0.0186219739292365
sg6
I0
sg7
I00
sg8
I0
sg9
S'marty.sunde@enron.com'
p66
sg11
F0.08022282761689772
sg12
I0
sg13
I2565
sg14
I0
sg15
I38
sg16
F0.010726151374452242
sg17
I0
sg18
F0.07944514501891552
sg19
F0.01511597052465802
sg20
I37
sg21
I13
sg22
F0.19022083377672377
sg23
F0.23137684205977596
sg24
F0.018889308651303362
sg25
F0.014918079334860602
sg26
F1.3157894736842106
sg27
I0
ssS'GIBBS DANA R'
p67
(dp68
g3
I169
sg4
F0.0929796967297599
sg5
F0.0
sg6
I0
sg7
I00
sg8
I0
sg9
S'dana.gibbs@enron.com'
p69
sg11
F0.0773586834747413
sg12
I0
sg13
I23
sg14
I0
sg15
I12
sg16
I0
sg17
I0
sg18
I0
sg19
F0.046025961865982845
sg20
I0
sg21
I0
sg22
I0
sg23
I0
sg24
F0.0
sg25
F0.009331569261366239
sg26
F0.0
sg27
F0.06449217106638709
ssS'LOWRY CHARLES P'
p70
(dp71
g3
g30
sg4
I0
sg5
I0
sg6
I0
sg7
I00
sg8
I0
sg9
g30
sg11
I0
sg12
F0.09474166462243826
sg13
g30
sg14
I0
sg15
g30
sg16
I0
sg17
I0
sg18
I0
sg19
F0.008469230413834057
sg20
g30
sg21
g30
sg22
F0.15882452932665
sg23
I0
sg24
I0
sg25
I0
sg26
I0
sg27
F0.01074156169996773
ssS'COLWELL WESLEY'
p72
(dp73
g3
I1758
sg4
F0.019926517997577147
sg5
F0.13959955506117908
sg6
F0.07158760361306125
sg7
I01
sg8
F0.9591189286989522
sg9
S'wes.colwell@enron.com'
p74
sg11
I0
sg12
I0
sg13
I1132
sg14
I0
sg15
I40
sg16
F0.00982052905448184
sg17
I0
sg18
F0.1424968474148802
sg19
F0.015102177188584871
sg20
I240
sg21
I11
sg22
F0.1901817923845561
sg23
F0.25933554859148655
sg24
F0.1427758816837315
sg25
F0.014389736465396343
sg26
F6.275
sg27
I0
ssS'MULLER MARK S'
p75
(dp76
g3
I136
sg4
F0.1447929317603672
sg5
F0.07894736842105263
sg6
I0
sg7
I00
sg8
F0.7950175150768377
sg9
S's..muller@enron.com'
p77
sg11
F0.32629100720990517
sg12
I0
sg13
I114
sg14
I0
sg15
I16
sg16
F9.121861995012031e-05
sg17
I0
sg18
F0.12988650693568726
sg19
F0.029721607958763052
sg20
I12
sg21
I0
sg22
F0.17073514826285383
sg23
F0.22612648217785505
sg24
F0.08823529411764706
sg25
F0.03091862665230264
sg26
F0.75
sg27
F0.03066041533320373
ssS'JACKSON CHARLENE R'
p78
(dp79
g3
I258
sg4
I0
sg5
F0.14012738853503184
sg6
F0.04388600922949063
sg7
I00
sg8
I0
sg9
S'charlene.jackson@enron.com'
p80
sg11
I0
sg12
I0
sg13
I117
sg14
I0
sg15
I56
sg16
F0.00023485174850650022
sg17
I0
sg18
F0.02269861286254729
sg19
F0.015661499000766386
sg20
I25
sg21
I19
sg22
F0.18110841161190047
sg23
F0.259349952870998
sg24
F0.17054263565891473
sg25
F0.005320856401158965
sg26
F0.7857142857142857
sg27
F0.005292691105650911
ssS'WESTFAHL RICHARD K'
p81
(dp82
g3
g30
sg4
I0
sg5
I0
sg6
F0.22624062288126326
sg7
I00
sg8
F0.9971551736194657
sg9
S'dick.westfahl@enron.com'
p83
sg11
F0.03683219629759283
sg12
I0
sg13
g30
sg14
I0
sg15
g30
sg16
F0.03871993924164218
sg17
I0
sg18
I0
sg19
F0.008728109767124341
sg20
g30
sg21
g30
sg22
F0.1721402928818444
sg23
F0.05695722199065342
sg24
I0
sg25
F0.007357952994141685
sg26
I0
sg27
I0
ssS'WALTERS GARETH W'
p84
(dp85
g3
g30
sg4
F0.023910749537865896
sg5
I0
sg6
F0.14713382761411106
sg7
I00
sg8
I0
sg9
g30
sg11
I0
sg12
I0
sg13
g30
sg14
I0
sg15
g30
sg16
I0
sg17
I0
sg18
I0
sg19
F0.021858206092012007
sg20
g30
sg21
g30
sg22
I0
sg23
I0
sg24
I0
sg25
F0.0008426255227120564
sg26
I0
sg27
F0.02990365524932684
ssS'WALLS JR ROBERT H'
p86
(dp87
g3
I671
sg4
I0
sg5
F0.0208078335373317
sg6
F0.2221551516742121
sg7
I00
sg8
I0
sg9
S'rob.walls@enron.com'
p88
sg11
F0.09288975576468354
sg12
I0
sg13
I215
sg14
I0
sg15
I146
sg16
F0.0
sg17
I0
sg18
F0.09836065573770492
sg19
F0.12090713522561493
sg20
I17
sg21
I0
sg22
F0.23936997327680049
sg23
F0.32104798335585505
sg24
F0.02533532041728763
sg25
F0.0173680780771313
sg26
F0.11643835616438356
sg27
F0.1264593530506347
ssS'KITCHEN LOUISE'
p89
(dp90
g3
I8305
sg4
I0
sg5
F0.044353633011063494
sg6
F0.024609058898147542
sg7
I00
sg8
I0
sg9
S'louise.kitchen@enron.com'
p91
sg11
I0
sg12
I0
sg13
I3669
sg14
I0
sg15
I1728
sg16
F0.00906616554664037
sg17
I0
sg18
F0.38209331651954603
sg19
F0.012028195938855322
sg20
I251
sg21
I194
sg22
F0.17681437672202482
sg23
F0.24394097486363198
sg24
F0.05358217940999398
sg25
F0.03351684915490006
sg26
F0.25752314814814814
sg27
F0.0022639911447045183
ssS'CHAN RONNIE'
p92
(dp93
g3
g30
sg4
I0
sg5
I0
sg6
I0
sg7
I00
sg8
F0.9720423809772537
sg9
g30
sg11
I0
sg12
F0.10177183859352447
sg13
g30
sg14
I0
sg15
g30
sg16
I0
sg17
F0.7096129410977938
sg18
I0
sg19
I0
sg20
g30
sg21
g30
sg22
F0.15184395144033946
sg23
I0
sg24
I0
sg25
I0
sg26
I0
sg27
I0
ssS'BELFER ROBERT'
p94
(dp95
g3
g30
sg4
F0.0
sg5
I0
sg6
I0
sg7
I00
sg8
I0
sg9
g30
sg11
I0
sg12
F0.10621132276365762
sg13
g30
sg14
I0
sg15
g30
sg16
I0
sg17
F0.0
sg18
I0
sg19
F0.0
sg20
g30
sg21
g30
sg22
I0
sg23
I0
sg24
I0
sg25
F0.0009883386525706998
sg26
I0
sg27
F0.0
ssS'SHANKMAN JEFFREY A'
p96
(dp97
g3
I3221
sg4
I0
sg5
F0.029989833954591663
sg6
F0.7822365111650592
sg7
I00
sg8
I0
sg9
S'jeffrey.shankman@enron.com'
p98
sg11
F0.09558290622671123
sg12
I0
sg13
I1730
sg14
I0
sg15
I2681
sg16
F0.00011477136414888153
sg17
I0
sg18
F0.24337957124842372
sg19
F0.043050832858110864
sg20
I94
sg21
I83
sg22
F0.1862600902996306
sg23
F0.27335091255612043
sg24
F0.05495187829866501
sg25
F0.029341100966500996
sg26
F0.0660201417381574
sg27
F0.04188699528861454
ssS'WODRASKA JOHN'
p99
(dp100
g3
g30
sg4
I0
sg5
I0
sg6
I0
sg7
I00
sg8
I0
sg9
S'john.wodraska@enron.com'
p101
sg11
I0
sg12
I0
sg13
g30
sg14
I0
sg15
g30
sg16
F0.018299806548956358
sg17
I0
sg18
I0
sg19
I0
sg20
g30
sg21
g30
sg22
I0
sg23
I0
sg24
I0
sg25
F0.001829235702768197
sg26
I0
sg27
I0
ssS'BERGSIEKER RICHARD P'
p102
(dp103
g3
I383
sg4
I0
sg5
F0.00904977375565611
sg6
F0.2581939067865188
sg7
I00
sg8
F0.8615748070601472
sg9
S'rick.bergsieker@enron.com'
p104
sg11
F0.021872022262273968
sg12
I0
sg13
I233
sg14
I0
sg15
I59
sg16
F0.04124761202684202
sg17
I0
sg18
F0.02269861286254729
sg19
F0.014308897611150843
sg20
I4
sg21
I0
sg22
F0.1879364516695205
sg23
F0.16875063581390032
sg24
F0.010443864229765013
sg25
F0.005974354199456747
sg26
F0.06779661016949153
sg27
I0
ssS'URQUHART JOHN A'
p105
(dp106
g3
g30
sg4
I0
sg5
I0
sg6
F0.9995319642193207
sg7
I00
sg8
F0.9897723824928579
sg9
g30
sg11
I0
sg12
I0
sg13
g30
sg14
I0
sg15
g30
sg16
I0
sg17
F0.24804018457560242
sg18
I0
sg19
I0
sg20
g30
sg21
g30
sg22
I0
sg23
I0
sg24
I0
sg25
F0.0022065351807646696
sg26
I0
sg27
I0
ssS'BIBI PHILIPPE A'
p107
(dp108
g3
I1607
sg4
I0
sg5
F0.018822100789313904
sg6
F0.16801609693152242
sg7
I00
sg8
I0
sg9
S'philippe.bibi@enron.com'
p109
sg11
F0.05919730287019196
sg12
I0
sg13
I1336
sg14
I0
sg15
I40
sg16
F0.0410904650286634
sg17
I0
sg18
F0.11727616645649433
sg19
F0.038407910490444445
sg20
I23
sg21
I8
sg22
F0.17174596330431602
sg23
F0.19189021058156377
sg24
F0.019290603609209707
sg25
F0.019770683841181573
sg26
F0.775
sg27
F0.042581009884408834
ssS'RIEKER PAULA H'
p110
(dp111
g3
I1328
sg4
F0.04857622877131292
sg5
F0.058865248226950356
sg6
F0.14488550620038054
sg7
I01
sg8
F0.9716953047377904
sg9
S'paula.rieker@enron.com'
p112
sg11
I0
sg12
I0
sg13
I1258
sg14
I0
sg15
I82
sg16
F0.00018803584302945435
sg17
I0
sg18
F0.07944514501891552
sg19
F0.03993516643785936
sg20
I35
sg21
I48
sg22
F0.16630821140672009
sg23
F0.22391812607525696
sg24
F0.0625
sg25
F0.010611778362121654
sg26
F1.0121951219512195
sg27
F0.04751632831222877
ssS'WHALEY DAVID A'
p113
(dp114
g3
g30
sg4
I0
sg5
I0
sg6
I0
sg7
I00
sg8
I0
sg9
g30
sg11
I0
sg12
I0
sg13
g30
sg14
I0
sg15
g30
sg16
I0
sg17
I0
sg18
I0
sg19
F0.002905368905519737
sg20
g30
sg21
g30
sg22
I0
sg23
I0
sg24
I0
sg25
I0
sg26
I0
sg27
F0.0027786497281606323
ssS'BECK SALLY W'
p115
(dp116
g3
I7315
sg4
I0
sg5
F0.0454623434551381
sg6
F0.1619491284473897
sg7
I00
sg8
I0
sg9
S'sally.beck@enron.com'
p117
sg11
I0
sg12
I0
sg13
I2639
sg14
I0
sg15
I4343
sg16
F5.444158904959561e-05
sg17
I0
sg18
F0.07944514501891552
sg19
F0.00346094739345721
sg20
I144
sg21
I386
sg22
F0.15723183630900145
sg23
F0.20782944612844476
sg24
F0.07245386192754613
sg25
F0.00935615412741131
sg26
F0.12203545935988948
sg27
I0
ssS'HAUG DAVID L'
p118
(dp119
g3
I573
sg4
I0
sg5
F0.018581081081081082
sg6
F0.0014303523390853618
sg7
I00
sg8
I0
sg9
S'david.haug@enron.com'
p120
sg11
I0
sg12
I0
sg13
I471
sg14
I0
sg15
I19
sg16
I0
sg17
I0
sg18
I0
sg19
F0.04600610597216664
sg20
I4
sg21
I7
sg22
F0.277653916369883
sg23
I0
sg24
F0.019197207678883072
sg25
F3.157600627155491e-06
sg26
F0.5789473684210527
sg27
I0
ssS'ECHOLS JOHN B'
p121
(dp122
g3
g30
sg4
I0
sg5
I0
sg6
F0.09352842114471929
sg7
I00
sg8
I0
sg9
S'john.echols@enron.com'
p123
sg11
F0.42660775921253075
sg12
I0
sg13
g30
sg14
I0
sg15
g30
sg16
F0.005190580794262243
sg17
I0
sg18
F0.01639344262295082
sg19
F0.02142308533694933
sg20
g30
sg21
g30
sg22
F0.17344011787506108
sg23
F0.1636398173897465
sg24
I0
sg25
F0.02599638111930569
sg26
I0
sg27
F0.017415963774045317
ssS'MENDELSOHN JOHN'
p124
(dp125
g3
g30
sg4
I0
sg5
I0
sg6
F0.0
sg7
I00
sg8
F0.9706249627164196
sg9
g30
sg11
I0
sg12
I0
sg13
g30
sg14
I0
sg15
g30
sg16
I0
sg17
F0.7465132004250291
sg18
I0
sg19
I0
sg20
g30
sg21
g30
sg22
I0
sg23
I0
sg24
I0
sg25
F0.0
sg26
I0
sg27
I0
ssS'HICKERSON GARY J'
p126
(dp127
g3
I1320
sg4
I0
sg5
F0.030438010393466965
sg6
F0.4317345755965269
sg7
I00
sg8
I0
sg9
S'gary.hickerson@enron.com'
p128
sg11
F0.0
sg12
I0
sg13
I900
sg14
I0
sg15
I27
sg16
F0.00018668445606723034
sg17
I0
sg18
F0.2055485498108449
sg19
F0.009870759492617625
sg20
I40
sg21
I1
sg22
F0.17537450944893823
sg23
F0.19023641924015625
sg24
F0.03106060606060606
sg25
F0.0201009572792568
sg26
F1.5185185185185186
sg27
I0
ssS'CLINE KENNETH W'
p129
(dp130
g3
g30
sg4
I0
sg5
I0
sg6
I0
sg7
I00
sg8
I0
sg9
g30
sg11
I0
sg12
F0.07624896556243538
sg13
g30
sg14
I0
sg15
g30
sg16
I0
sg17
I0
sg18
I0
sg19
F0.004752618043339598
sg20
g30
sg21
g30
sg22
F0.18809981513497726
sg23
I0
sg24
I0
sg25
I0
sg26
I0
sg27
I0
ssS'LEWIS RICHARD'
p131
(dp132
g3
I952
sg4
I0
sg5
F0.010224948875255624
sg6
I0
sg7
I00
sg8
I0
sg9
S'richard.lewis@enron.com'
p133
sg11
I0
sg12
I0
sg13
I739
sg14
I0
sg15
I26
sg16
I0
sg17
I0
sg18
I0
sg19
F0.01819926939669067
sg20
I10
sg21
I0
sg22
I0
sg23
I0
sg24
F0.01050420168067227
sg25
I0
sg26
F0.38461538461538464
sg27
F0.02466704201376738
ssS'HAYES ROBERT E'
p134
(dp135
g3
I504
sg4
F0.016917247748292747
sg5
F0.031007751937984496
sg6
I0
sg7
I00
sg8
I0
sg9
S'robert.hayes@enron.com'
p136
sg11
I0
sg12
I0
sg13
I50
sg14
I0
sg15
I12
sg16
I0
sg17
I0
sg18
I0
sg19
F0.003977505794981264
sg20
I16
sg21
I0
sg22
F0.15869393068736345
sg23
I0
sg24
F0.031746031746031744
sg25
F7.544444556564481e-05
sg26
F1.3333333333333333
sg27
I0
ssS'MCCARTY DANNY J'
p137
(dp138
g3
I1433
sg4
I0
sg5
F0.016383495145631068
sg6
I0
sg7
I00
sg8
I0
sg9
S'danny.mccarty@enron.com'
p139
sg11
I0
sg12
I0
sg13
I508
sg14
I0
sg15
I215
sg16
I0
sg17
I0
sg18
I0
sg19
F0.016336843520359644
sg20
I25
sg21
I2
sg22
F0.15541963623096472
sg23
I0
sg24
F0.01884159106769016
sg25
I0
sg26
F0.12558139534883722
sg27
F0.019248452304650512
ssS'KOPPER MICHAEL J'
p140
(dp141
g3
g30
sg4
I0
sg5
I0
sg6
F0.5160903702731667
sg7
I01
sg8
I0
sg9
S'michael.kopper@enron.com'
p142
sg11
F0.10508783027340668
sg12
I0
sg13
g30
sg14
I0
sg15
g30
sg16
F0.08759883344416315
sg17
I0
sg18
F0.09205548549810845
sg19
F0.0209366769709126
sg20
g30
sg21
g30
sg22
F0.2066960709387854
sg23
F0.20150506715545188
sg24
I0
sg25
F0.02561291128412037
sg26
I0
sg27
I0
ssS'LEFF DANIEL P'
p143
(dp144
g3
I2822
sg4
I0
sg5
F0.028076256499133447
sg6
I0
sg7
I00
sg8
I0
sg9
S'dan.leff@enron.com'
p145
sg11
F0.25967714896012006
sg12
I0
sg13
I2672
sg14
I0
sg15
I63
sg16
F0.0002974016593294399
sg17
I0
sg18
F0.11727616645649433
sg19
F0.008231671733412002
sg20
I67
sg21
I14
sg22
F0.17073514826285383
sg23
F0.24601519111327977
sg24
F0.028703047484053862
sg25
F0.025725078528417124
sg26
F1.2857142857142858
sg27
I0
ssS'LAVORATO JOHN J'
p146
(dp147
g3
I7259
sg4
I0
sg5
F0.09538805363673304
sg6
F0.2160356931959845
sg7
I00
sg8
I0
sg9
S'john.lavorato@enron.com'
p148
sg11
F0.38732767412544516
sg12
I0
sg13
I3962
sg14
I0
sg15
I2585
sg16
F0.0001496178422462291
sg17
I0
sg18
F1.0
sg19
F0.10601820545401935
sg20
I528
sg21
I411
sg22
F0.2080272211788151
sg23
F0.30502052159696647
sg24
F0.12935666069706572
sg25
F0.10067250616782242
sg26
F0.3632495164410058
sg27
F0.1209986321483598
ssS'BERBERIAN DAVID'
p149
(dp150
g3
g30
sg4
I0
sg5
I0
sg6
F0.051370207554184984
sg7
I00
sg8
I0
sg9
S'david.berberian@enron.com'
p151
sg11
I0
sg12
I0
sg13
g30
sg14
I0
sg15
g30
sg16
I0
sg17
I0
sg18
I0
sg19
F0.05162754143488657
sg20
g30
sg21
g30
sg22
F0.20002724835807337
sg23
F0.1945523014887723
sg24
I0
sg25
F0.002204777739437017
sg26
I0
sg27
F0.04720065008401927
ssS'DETMERING TIMOTHY J'
p152
(dp153
g3
g30
sg4
F0.1497524308942965
sg5
I0
sg6
F0.22792467685847384
sg7
I00
sg8
F0.7789649535771258
sg9
S'timothy.detmering@enron.com'
p154
sg11
F0.06824657209875634
sg12
F0.08538275204756296
sg13
g30
sg14
I0
sg15
g30
sg16
F0.00010646998709521978
sg17
I0
sg18
F0.04476670870113493
sg19
F0.0421522315980062
sg20
g30
sg21
g30
sg22
F0.1681174171596938
sg23
F0.1890768747394851
sg24
I0
sg25
F0.011630350799290593
sg26
I0
sg27
F0.05894814861357657
ssS'WAKEHAM JOHN'
p155
(dp156
g3
g30
sg4
I0
sg5
I0
sg6
F0.4532729698401242
sg7
I00
sg8
I0
sg9
g30
sg11
I0
sg12
I0
sg13
g30
sg14
I0
sg15
g30
sg16
I0
sg17
F0.7877380572006034
sg18
I0
sg19
I0
sg20
g30
sg21
g30
sg22
I0
sg23
I0
sg24
I0
sg25
F0.0020560421967456533
sg26
I0
sg27
I0
ssS'POWERS WILLIAM'
p157
(dp158
g3
I653
sg4
I0
sg5
F0.0
sg6
I0
sg7
I00
sg8
F0.9952428292079497
sg9
S'ken.powers@enron.com'
p159
sg11
I0
sg12
I0
sg13
I12
sg14
I0
sg15
I26
sg16
I0
sg17
F0.10562569197274463
sg18
I0
sg19
I0
sg20
I0
sg21
I0
sg22
I0
sg23
I0
sg24
F0.0
sg25
I0
sg26
F0.0
sg27
I0
ssS'GOLD JOSEPH'
p160
(dp161
g3
g30
sg4
I0
sg5
I0
sg6
I0
sg7
I00
sg8
I0
sg9
S'joe.gold@enron.com'
p162
sg11
F0.046409024368766386
sg12
I0
sg13
g30
sg14
I0
sg15
g30
sg16
F0.0790837441951897
sg17
I0
sg18
F0.08575031525851198
sg19
F0.018751287657765604
sg20
g30
sg21
g30
sg22
F0.17537450944893823
sg23
F0.24523555948472292
sg24
I0
sg25
F0.020730324056247973
sg26
I0
sg27
F0.012614026822284017
ssS'BANNANTINE JAMES M'
p163
(dp164
g3
I566
sg4
I0
sg5
F0.06554621848739496
sg6
F0.2456225532007961
sg7
I00
sg8
F0.9987809517937933
sg9
S'james.bannantine@enron.com'
p165
sg11
I0
sg12
F0.07116570892391237
sg13
I465
sg14
I0
sg15
I29
sg16
F0.08345017199777562
sg17
I0
sg18
I0
sg19
F0.10757133916468656
sg20
I39
sg21
I0
sg22
F0.2511802247402193
sg23
F0.0
sg24
F0.06890459363957598
sg25
F0.008845617421728319
sg26
F1.3448275862068966
sg27
F0.1177132143366365
ssS'DUNCAN JOHN H'
p166
(dp167
g3
g30
sg4
I0
sg5
I0
sg6
I0
sg7
I00
sg8
F0.993102145165208
sg9
g30
sg11
I0
sg12
I0
sg13
g30
sg14
I0
sg15
g30
sg16
I0
sg17
F0.7371655310263859
sg18
I0
sg19
F0.008459973823991458
sg20
g30
sg21
g30
sg22
I0
sg23
I0
sg24
I0
sg25
F0.0007468546266260375
sg26
I0
sg27
F0.010728313812692751
ssS'SHAPIRO RICHARD S'
p168
(dp169
g3
I15149
sg4
I0
sg5
F0.00849425568320704
sg6
F0.6019683747785578
sg7
I00
sg8
I0
sg9
S'richard.shapiro@enron.com'
p170
sg11
I0
sg12
I0
sg13
I4527
sg14
I0
sg15
I1215
sg16
F6.78589310316768e-05
sg17
I0
sg18
F0.07313997477931904
sg19
F0.020976734609154533
sg20
I74
sg21
I65
sg22
F0.17180826829889628
sg23
F0.24181094203087738
sg24
F0.009175523136840716
sg25
F0.010210540988239192
sg26
F0.11440329218106995
sg27
F0.01760227856673233
ssS'SHERRIFF JOHN R'
p171
(dp172
g3
I3187
sg4
I0
sg5
F0.01555352241537054
sg6
I0
sg7
I00
sg8
I0
sg9
S'john.sherriff@enron.com'
p173
sg11
F0.09558290622671123
sg12
I0
sg13
I2103
sg14
I0
sg15
I92
sg16
F0.17878695065999325
sg17
I0
sg18
F0.18032786885245902
sg19
F0.06455352486770655
sg20
I28
sg21
I23
sg22
F0.22445426122399717
sg23
F0.3855872579743442
sg24
F0.016002510197678066
sg25
F0.04186225242467759
sg26
F0.5543478260869565
sg27
F0.05334889266151191
ssS'SHELBY REX'
p174
(dp175
g3
I225
sg4
I0
sg5
F0.10227272727272728
sg6
F0.0994510421450911
sg7
I01
sg8
F0.9990483945868666
sg9
S'rex.shelby@enron.com'
p176
sg11
I0
sg12
I0
sg13
I91
sg14
I0
sg15
I39
sg16
F0.15186905987001395
sg17
I0
sg18
F0.01639344262295082
sg19
F0.05162754143488657
sg20
I13
sg21
I14
sg22
F0.20002724835807337
sg23
F0.1902868342184463
sg24
F0.12
sg25
F0.019348627546956154
sg26
F0.6923076923076923
sg27
F0.04720065008401927
ssS'LEMAISTRE CHARLES'
p177
(dp178
g3
g30
sg4
I0
sg5
I0
sg6
I0
sg7
I00
sg8
F0.993102145165208
sg9
g30
sg11
I0
sg12
I0
sg13
g30
sg14
I0
sg15
g30
sg16
I0
sg17
F0.8114713291078103
sg18
I0
sg19
F0.009296688169148453
sg20
g30
sg21
g30
sg22
I0
sg23
I0
sg24
I0
sg25
F0.000843417336936603
sg26
I0
sg27
F0.011925806357407791
ssS'DEFFNER JOSEPH M'
p179
(dp180
g3
I714
sg4
I0
sg5
F0.15101522842639595
sg6
F0.18143166458893772
sg7
I00
sg8
I0
sg9
S'joseph.deffner@enron.com'
p181
sg11
F0.05242611073495566
sg12
I0
sg13
I552
sg14
I0
sg15
I74
sg16
F0.002466377733698967
sg17
I0
sg18
F0.06683480453972257
sg19
F0.004136047783208469
sg20
I115
sg21
I4
sg22
F0.15814199596180714
sg23
F0.18513460349069708
sg24
F0.16666666666666666
sg25
F0.011669613197302869
sg26
F1.6081081081081081
sg27
F0.0004103351106951242
ssS'KISHKILL JOSEPH G'
p182
(dp183
g3
g30
sg4
I0
sg5
I0
sg6
F0.5082212453251099
sg7
I00
sg8
F0.9856691193197306
sg9
S'joe.kishkill@enron.com'
p184
sg11
I0
sg12
I0
sg13
g30
sg14
I0
sg15
g30
sg16
F0.04491961998612512
sg17
I0
sg18
I0
sg19
F0.021939928556622388
sg20
g30
sg21
g30
sg22
F0.20953572759565373
sg23
F0.15643857790149454
sg24
I0
sg25
F0.00680523769659504
sg26
I0
sg27
I0
ssS'WHALLEY LAWRENCE G'
p185
(dp186
g3
I6019
sg4
I0
sg5
F0.03193916349809886
sg6
F0.25234564661111475
sg7
I00
sg8
I0
sg9
S'greg.whalley@enron.com'
p187
sg11
F0.14560525557349763
sg12
I0
sg13
I3920
sg14
I0
sg15
I556
sg16
F0.02905713635117991
sg17
I0
sg18
F0.3694829760403531
sg19
F0.12457193103714434
sg20
I186
sg21
I24
sg22
F0.31098754913572263
sg23
F0.45903467920319124
sg24
F0.034889516530985216
sg25
F0.0451664931837107
sg26
F0.3776978417266187
sg27
F0.09549179054630182
ssS'MCCONNELL MICHAEL S'
p188
(dp189
g3
I3329
sg4
I0
sg5
F0.047109207708779445
sg6
F0.3552522800341185
sg7
I00
sg8
I0
sg9
S'mike.mcconnell@enron.com'
p190
sg11
F0.09558290622671123
sg12
I0
sg13
I2189
sg14
I0
sg15
I2742
sg16
F5.1931870405465315e-05
sg17
I0
sg18
F0.12988650693568726
sg19
F0.06398993078328999
sg20
I92
sg21
I194
sg22
F0.23509822307537454
sg23
F0.3282024089356948
sg24
F0.08591168519074797
sg25
F0.020289911190792514
sg26
F0.10430342815463166
sg27
F0.047160294981243175
ssS'PIRO JIM'
p191
(dp192
g3
I58
sg4
I0
sg5
F0.013513513513513514
sg6
I0
sg7
I00
sg8
I0
sg9
S'jim.piro@enron.com'
p193
sg11
I0
sg12
I0
sg13
I3
sg14
I0
sg15
I16
sg16
I0
sg17
I0
sg18
I0
sg19
F0.0018593945974594913
sg20
I0
sg21
I1
sg22
F0.15269871607947952
sg23
I0
sg24
F0.017241379310344827
sg25
I0
sg26
F0.0625
sg27
I0
ssS'DELAINEY DAVID W'
p194
(dp195
g3
I3093
sg4
I0
sg5
F0.10954235637779941
sg6
F0.3762920193338145
sg7
I01
sg8
I0
sg9
S'david.delainey@enron.com'
p196
sg11
F0.24147104996226515
sg12
I0
sg13
I2097
sg14
I0
sg15
I3069
sg16
F0.00016013935502354453
sg17
I0
sg18
F0.3694829760403531
sg19
F0.07442611533413919
sg20
I66
sg21
I609
sg22
F0.22616586349655168
sg23
F0.3283149423693779
sg24
F0.21823472356935014
sg25
F0.045846342945652235
sg26
F0.21994134897360704
sg27
F0.06661293944734298
ssS'SULLIVAN-SHAKLOVITZ COLLEEN'
p197
(dp198
g3
g30
sg4
F0.04357047793931838
sg5
I0
sg6
I0
sg7
I00
sg8
I0
sg9
g30
sg11
F0.09558290622671123
sg12
I0
sg13
g30
sg14
I0
sg15
g30
sg16
F1.5444422425417196e-05
sg17
I0
sg18
F0.0037831021437578815
sg19
F0.028613400885145638
sg20
g30
sg21
g30
sg22
I0
sg23
F0.14611521082913734
sg24
I0
sg25
F0.00964862326439995
sg26
I0
sg27
F0.039571584871541644
ssS'WROBEL BRUCE'
p199
(dp200
g3
g30
sg4
I0
sg5
I0
sg6
I0
sg7
I00
sg8
I0
sg9
g30
sg11
I0
sg12
I0
sg13
g30
sg14
I0
sg15
g30
sg16
I0
sg17
I0
sg18
I0
sg19
F0.0037275168367705766
sg20
g30
sg21
g30
sg22
I0
sg23
I0
sg24
I0
sg25
I0
sg26
I0
sg27
F0.003955295048064937
ssS'LINDHOLM TOD A'
p201
(dp202
g3
g30
sg4
F0.04695236534553235
sg5
I0
sg6
F0.25186011416573717
sg7
I00
sg8
I0
sg9
S'tod.lindholm@enron.com'
p203
sg11
F0.020837786293753352
sg12
I0
sg13
g30
sg14
I0
sg15
g30
sg16
F0.00025367463833747745
sg17
I0
sg18
F0.01639344262295082
sg19
F0.06323575266888339
sg20
g30
sg21
g30
sg22
F0.1796213261358972
sg23
F0.21244511744439273
sg24
I0
sg25
F0.008456392449008492
sg26
I0
sg27
F0.07413214910226347
ssS'MEYER JEROME J'
p204
(dp205
g3
g30
sg4
I0
sg5
I0
sg6
F0.008761454847669664
sg7
I00
sg8
F0.9892928692672838
sg9
g30
sg11
I0
sg12
I0
sg13
g30
sg14
I0
sg15
g30
sg16
I0
sg17
F0.2605235586532817
sg18
I0
sg19
I0
sg20
g30
sg21
g30
sg22
I0
sg23
I0
sg24
I0
sg25
F1.9341510875206264e-05
sg26
I0
sg27
I0
ssS'LAY KENNETH L'
p206
(dp207
g3
I4273
sg4
F0.04677409721126765
sg5
F0.03225806451612903
sg6
F0.4360343809461321
sg7
I01
sg8
F0.9146103969313437
sg9
S'kenneth.lay@enron.com'
p208
sg11
F0.6955536324238689
sg12
I0
sg13
I2411
sg14
F1.0
sg15
I36
sg16
F1.0
sg17
I0
sg18
F0.8738965952080706
sg19
F1.0
sg20
I123
sg21
I16
sg22
F1.0
sg23
F0.9649462855414344
sg24
F0.03252983852094547
sg25
F1.0
sg26
F3.861111111111111
sg27
F1.0
ssS'BUTTS ROBERT H'
p209
(dp210
g3
g30
sg4
I0
sg5
I0
sg6
F0.040513527108894866
sg7
I00
sg8
F0.9788309182135964
sg9
S'bob.butts@enron.com'
p211
sg11
F0.020837786293753352
sg12
I0
sg13
g30
sg14
I0
sg15
g30
sg16
F0.014542275100492512
sg17
I0
sg18
F0.08575031525851198
sg19
F0.00939313980089299
sg20
g30
sg21
g30
sg22
F0.17402262926616463
sg23
F0.23500491996172063
sg24
I0
sg25
F0.01227731130210035
sg26
I0
sg27
I0
ssS'OLSON CINDY K'
p212
(dp213
g3
I1184
sg4
F0.027600317942136368
sg5
F0.02831715210355987
sg6
F0.27838505784834766
sg7
I00
sg8
I0
sg9
S'cindy.olson@enron.com'
p214
sg11
F0.006062986743458851
sg12
I0
sg13
I856
sg14
I0
sg15
I52
sg16
F9.363181095409175e-05
sg17
I0
sg18
F0.08575031525851198
sg19
F0.053929421370975825
sg20
I20
sg21
I15
sg22
F0.20581487562264686
sg23
F0.295828790733727
sg24
F0.02956081081081081
sg25
F0.012759883446877401
sg26
F0.6730769230769231
sg27
F0.047568621071670224
ssS'MCDONALD REBECCA'
p215
(dp216
g3
I894
sg4
I0
sg5
F0.06063947078280044
sg6
I0
sg7
I00
sg8
I0
sg9
S'rebecca.mcdonald@enron.com'
p217
sg11
I0
sg12
I0
sg13
I720
sg14
I0
sg15
I13
sg16
I0
sg17
I0
sg18
I0
sg19
F0.035306444289336096
sg20
I54
sg21
I1
sg22
F0.20376122929481802
sg23
I0
sg24
F0.06152125279642058
sg25
I0
sg26
F4.230769230769231
sg27
F0.021954107629737797
ssS'CUMBERLAND MICHAEL S'
p218
(dp219
g3
g30
sg4
I0
sg5
I0
sg6
F0.09708899241082168
sg7
I00
sg8
I0
sg9
g30
sg11
F0.04053751902747935
sg12
I0
sg13
g30
sg14
I0
sg15
g30
sg16
F6.863115215294766e-05
sg17
I0
sg18
F0.03215636822194199
sg19
F0.005127398039120627
sg20
g30
sg21
g30
sg22
F0.16194864686450403
sg23
F0.16602912725370708
sg24
I0
sg25
F0.007800412989055728
sg26
I0
sg27
I0
ssS'GAHN ROBERT S'
p220
(dp221
g3
g30
sg4
F0.026896740786799583
sg5
I0
sg6
F0.21841086542877763
sg7
I00
sg8
F0.9999403462713423
sg9
g30
sg11
I0
sg12
I0
sg13
g30
sg14
I0
sg15
g30
sg16
F0.007388708215959745
sg17
I0
sg18
F0.055469104665825976
sg19
F0.007378824474529333
sg20
g30
sg21
g30
sg22
F0.16352815333524048
sg23
F0.17242912869413501
sg24
I0
sg25
F0.008694863718391465
sg26
I0
sg27
F0.002327901282217879
ssS'MCCLELLAN GEORGE'
p222
(dp223
g3
I1744
sg4
I0
sg5
F0.029001673173452314
sg6
F1.0
sg7
I00
sg8
F0.9645596912619846
sg9
S'george.mcclellan@enron.com'
p224
sg11
I0
sg12
I0
sg13
I1469
sg14
I0
sg15
I49
sg16
F0.004979378317594663
sg17
I0
sg18
F0.10466582597730138
sg19
F0.02018046444115597
sg20
I52
sg21
I0
sg22
F0.17537450944893823
sg23
F0.23671272735129606
sg24
F0.02981651376146789
sg25
F0.01273290382561663
sg26
F1.0612244897959184
sg27
F0.014659442385069265
ssS'HERMANN ROBERT J'
p225
(dp226
g3
g30
sg4
I0
sg5
I0
sg6
F0.2108741771099884
sg7
I00
sg8
F0.9203188877119883
sg9
S'robert.hermann@enron.com'
p227
sg11
F0.015912853110321853
sg12
I0
sg13
g30
sg14
I0
sg15
g30
sg16
F0.04019787394011445
sg17
I0
sg18
F0.07944514501891552
sg19
F0.014489614726693285
sg20
g30
sg21
g30
sg22
F0.17765111782761256
sg23
F0.23603752674919717
sg24
I0
sg25
F0.012527205940113062
sg26
I0
sg27
F0.005363647372220415
ssS'SCRIMSHAW MATTHEW'
p228
(dp229
g3
g30
sg4
I0
sg5
I0
sg6
I0
sg7
I00
sg8
I0
sg9
S'matthew.scrimshaw@enron.com'
p230
sg11
I0
sg12
I0
sg13
g30
sg14
I0
sg15
g30
sg16
I0
sg17
I0
sg18
I0
sg19
F0.01634957896045078
sg20
g30
sg21
g30
sg22
I0
sg23
I0
sg24
I0
sg25
I0
sg26
I0
sg27
F0.02201979385763308
ssS'GATHMANN WILLIAM D'
p231
(dp232
g3
g30
sg4
I0
sg5
I0
sg6
I0
sg7
I00
sg8
I0
sg9
g30
sg11
I0
sg12
F0.09945452447187866
sg13
g30
sg14
I0
sg15
g30
sg16
I0
sg17
I0
sg18
I0
sg19
F0.040473737213470654
sg20
g30
sg21
g30
sg22
F0.16517750819638902
sg23
I0
sg24
I0
sg25
I0
sg26
I0
sg27
F0.05096741750547873
ssS'HAEDICKE MARK E'
p233
(dp234
g3
I4009
sg4
F0.3461261139844
sg5
F0.04050420168067227
sg6
F0.3325284867572119
sg7
I00
sg8
F0.7335130937080159
sg9
S'mark.haedicke@enron.com'
p235
sg11
F0.18007978785751813
sg12
F0.08452695974812786
sg13
I1847
sg14
I0
sg15
I1941
sg16
F0.005056117791520954
sg17
I0
sg18
F0.13619167717528374
sg19
F0.017235302371389805
sg20
I180
sg21
I61
sg22
F0.1801581164866156
sg23
F0.33638313943072484
sg24
F0.060114741830880516
sg25
F0.03726274843835164
sg26
F0.12416280267903143
sg27
F0.017628861689989596
ssS'BOWEN JR RAYMOND M'
p236
(dp237
g3
I1858
sg4
I0
sg5
F0.08222811671087533
sg6
F0.28764079347374405
sg7
I01
sg8
F1.0
sg9
S'raymond.bowen@enron.com'
p238
sg11
F0.17829637105313392
sg12
I0
sg13
I1593
sg14
I0
sg15
I27
sg16
F0.00015627824941719025
sg17
I0
sg18
F0.1614123581336696
sg19
F0.006024880370782777
sg20
I140
sg21
I15
sg22
F0.16448892859824588
sg23
F0.25038598967753317
sg24
F0.08342303552206674
sg25
F0.02577684579741462
sg26
F5.7407407407407405
sg27
I0
ssS'GILLIS JOHN'
p239
(dp240
g3
g30
sg4
I0
sg5
I0
sg6
I0
sg7
I00
sg8
I0
sg9
g30
sg11
I0
sg12
I0
sg13
g30
sg14
I0
sg15
g30
sg16
I0
sg17
I0
sg18
I0
sg19
F0.0026393284101973767
sg20
g30
sg21
g30
sg22
F0.1543417943746306
sg23
I0
sg24
I0
sg25
I0
sg26
I0
sg27
F0.00018977962474354783
ssS'FITZGERALD JAY L'
p241
(dp242
g3
I936
sg4
I0
sg5
F0.009453781512605041
sg6
F0.10376396999322005
sg7
I00
sg8
I0
sg9
S'jay.fitzgerald@enron.com'
p243
sg11
F0.09597571889742172
sg12
I0
sg13
I723
sg14
I0
sg15
I16
sg16
F0.027550146833019828
sg17
I0
sg18
F0.03530895334174023
sg19
F0.033879708804365756
sg20
I1
sg21
I8
sg22
F0.20506894318291227
sg23
F0.1788651408333416
sg24
F0.009615384615384616
sg25
F0.013660813534074976
sg26
F0.5625
sg27
F0.01925095630092666
ssS'MORAN MICHAEL P'
p244
(dp245
g3
I672
sg4
I0
sg5
F0.0
sg6
I0
sg7
I00
sg8
I0
sg9
S'michael.moran@enron.com'
p246
sg11
I0
sg12
I0
sg13
I127
sg14
I0
sg15
I19
sg16
I0
sg17
I0
sg18
I0
sg19
F0.005395961209477015
sg20
I0
sg21
I0
sg22
F0.15928035773431862
sg23
I0
sg24
F0.0
sg25
I0
sg26
F0.0
sg27
F0.001637904726959733
ssS'REDMOND BRIAN L'
p247
(dp248
g3
I1671
sg4
I0
sg5
F0.13372093023255813
sg6
F0.06360475034446558
sg7
I00
sg8
I0
sg9
S'brian.redmond@enron.com'
p249
sg11
I0
sg12
I0
sg13
I1063
sg14
I0
sg15
I221
sg16
I0
sg17
I0
sg18
I0
sg19
F0.16141899738274498
sg20
I204
sg21
I49
sg22
F0.17193040221156242
sg23
F0.08675247416007295
sg24
F0.15140634350688212
sg25
F0.0010755251237101093
sg26
F1.1447963800904977
sg27
F0.2185393030895034
ssS'BAZELIDES PHILIP J'
p250
(dp251
g3
g30
sg4
F0.12055979869790749
sg5
I0
sg6
I0
sg7
I00
sg8
I0
sg9
g30
sg11
F0.0048317534476009765
sg12
I0
sg13
g30
sg14
I0
sg15
g30
sg16
F8.417210221852372e-05
sg17
I0
sg18
I0
sg19
F0.033440376809528535
sg20
g30
sg21
g30
sg22
I0
sg23
F0.07232838876430188
sg24
I0
sg25
F0.008304277211456258
sg26
I0
sg27
F0.04647987766755309
ssS'BELDEN TIMOTHY N'
p252
(dp253
g3
I7991
sg4
F0.3440564270716396
sg5
F0.03964601769911504
sg6
F0.07526627736587713
sg7
I01
sg8
F0.33393301028984007
sg9
S'tim.belden@enron.com'
p254
sg11
I0
sg12
I0
sg13
I5521
sg14
I0
sg15
I484
sg16
F0.020337987670910634
sg17
I0
sg18
F0.6532155107187894
sg19
F0.02349338777374559
sg20
I228
sg21
I108
sg22
F0.15904812479241265
sg23
F0.19222691061514377
sg24
F0.04204730321611813
sg25
F0.053123801264479034
sg26
F0.6942148760330579
sg27
F0.027656085661596143
ssS'DURAN WILLIAM D'
p255
(dp256
g3
I904
sg4
I0
sg5
F0.11899563318777293
sg6
F0.11214049821752728
sg7
I00
sg8
I0
sg9
S'w.duran@enron.com'
p257
sg11
F0.2040882461347647
sg12
I0
sg13
I599
sg14
I0
sg15
I12
sg16
F0.0001511622844887708
sg17
I0
sg18
F0.08575031525851198
sg19
F0.03427995968032906
sg20
I106
sg21
I3
sg22
F0.16086038245362366
sg23
F0.18924972609362242
sg24
F0.12057522123893805
sg25
F0.020211685739169923
sg26
F9.083333333333334
sg27
F0.042177313275469086
ssS'THORN TERENCE H'
p258
(dp259
g3
I266
sg4
F0.01823817786687781
sg5
F0.0
sg6
F0.20119852153183299
sg7
I00
sg8
I0
sg9
S'terence.thorn@enron.com'
p260
sg11
F0.025762719477184854
sg12
I0
sg13
I73
sg14
I0
sg15
I41
sg16
F0.041181297538052886
sg17
I0
sg18
I0
sg19
F0.09891101611702494
sg20
I0
sg21
I0
sg22
F0.17101108683404484
sg23
F0.1995136755129949
sg24
F0.0
sg25
F0.008799808071956986
sg26
F0.0
sg27
F0.129543694138136
ssS'FASTOW ANDREW S'
p261
(dp262
g3
g30
sg4
I0
sg5
I0
sg6
F0.24396037005445836
sg7
I01
sg8
F0.604623649192691
sg9
S'andrew.fastow@enron.com'
p263
sg11
F0.3283614491202198
sg12
I0
sg13
g30
sg14
I0
sg15
g30
sg16
F0.026782752093756912
sg17
I0
sg18
F0.15510718789407313
sg19
F0.03740282793091964
sg20
g30
sg21
g30
sg22
F0.2533027405444973
sg23
F0.3963166456754302
sg24
I0
sg25
F0.023406173321664052
sg26
I0
sg27
I0
ssS'FOY JOE'
p264
(dp265
g3
I57
sg4
F0.04353402792561134
sg5
F0.0
sg6
I0
sg7
I00
sg8
I0
sg9
S'tracy.foy@enron.com'
p266
sg11
I0
sg12
I0
sg13
I2
sg14
I0
sg15
I13
sg16
I0
sg17
I0
sg18
I0
sg19
F0.007883908773479264
sg20
I0
sg21
I0
sg22
I0
sg23
I0
sg24
F0.0
sg25
F0.0017536464131370864
sg26
F0.0
sg27
F0.009903858480652509
ssS'CALGER CHRISTOPHER F'
p267
(dp268
g3
I2598
sg4
I0
sg5
F0.08169219547775347
sg6
F0.1560265074470179
sg7
I01
sg8
F0.9253138171450525
sg9
S'christopher.calger@enron.com'
p269
sg11
F0.060297138948715884
sg12
I0
sg13
I2188
sg14
I0
sg15
I144
sg16
F4.671937783688701e-05
sg17
I0
sg18
F0.14880201765447668
sg19
F0.00346094739345721
sg20
I199
sg21
I25
sg22
F0.15723183630900145
sg23
F0.21580491564043677
sg24
F0.08622016936104696
sg25
F0.01582806700428531
sg26
F1.5555555555555556
sg27
I0
ssS'RICE KENNETH D'
p270
(dp271
g3
I905
sg4
I0
sg5
F0.04983748645720477
sg6
F0.20471972530236424
sg7
I01
sg8
F0.0
sg9
S'ken.rice@enron.com'
p272
sg11
F0.304910099284683
sg12
I0
sg13
I864
sg14
I0
sg15
I18
sg16
F0.016876603022454164
sg17
I0
sg18
F0.21185372005044137
sg19
F0.45950590846095235
sg20
I42
sg21
I4
sg22
F0.3082343248234615
sg23
F0.37825547970301976
sg24
F0.05082872928176796
sg25
F0.004875470556122512
sg26
F2.5555555555555554
sg27
F0.5762362193220057
ssS'KAMINSKI WINCENTY J'
p273
(dp274
g3
I4607
sg4
I0
sg5
F0.011172595520421607
sg6
F0.3649673031078451
sg7
I00
sg8
I0
sg9
S'vince.kaminski@enron.com'
p275
sg11
F0.050085191494206996
sg12
I0
sg13
I583
sg14
I0
sg15
I14368
sg16
F0.0004504944966213878
sg17
I0
sg18
F0.0416141235813367
sg19
F0.020753681310178133
sg20
I41
sg21
I171
sg22
F0.15723183630900145
sg23
F0.24723505353440506
sg24
F0.046016930757542866
sg25
F0.01049320901013131
sg26
F0.01475501113585746
sg27
F0.02465344473166317
ssS'LOCKHART EUGENE E'
p276
(dp277
g3
g30
sg4
I0
sg5
I0
sg6
I0
sg7
I00
sg8
I0
sg9
g30
sg11
I0
sg12
I0
sg13
g30
sg14
I0
sg15
g30
sg16
I0
sg17
I0
sg18
I0
sg19
I0
sg20
g30
sg21
g30
sg22
I0
sg23
I0
sg24
I0
sg25
I0
sg26
I0
sg27
I0
ssS'COX DAVID'
p278
(dp279
g3
I102
sg4
I0
sg5
F0.02962962962962963
sg6
F0.12122126719594077
sg7
I00
sg8
F0.9884639964059342
sg9
S'chip.cox@enron.com'
p280
sg11
I0
sg12
I0
sg13
I71
sg14
I0
sg15
I33
sg16
F4.7491598958157875e-05
sg17
I0
sg18
F0.09205548549810845
sg19
F0.010980268592059054
sg20
I0
sg21
I4
sg22
F0.17174596330431602
sg23
F0.282513834860337
sg24
F0.0392156862745098
sg25
F0.010633920191595867
sg26
F0.12121212121212122
sg27
F0.0033269957964016934
ssS'OVERDYKE JR JERE C'
p281
(dp282
g3
g30
sg4
I0
sg5
I0
sg6
F0.08173566913807055
sg7
I00
sg8
I0
sg9
S'jere.overdyke@enron.com'
p283
sg11
F0.013122582965916901
sg12
I0
sg13
g30
sg14
I0
sg15
g30
sg16
F1.67958093876412e-05
sg17
I0
sg18
I0
sg19
F0.14956384881356252
sg20
g30
sg21
g30
sg22
F0.26750298165676467
sg23
F0.08504286623555858
sg24
I0
sg25
F0.0024105818439219256
sg26
I0
sg27
F0.15324727991030104
ssS'PEREIRA PAULO V. FERRAZ'
p284
(dp285
g3
g30
sg4
I0
sg5
I0
sg6
F0.12157557465608118
sg7
I00
sg8
F0.9713385240640001
sg9
g30
sg11
I0
sg12
I0
sg13
g30
sg14
I0
sg15
g30
sg16
I0
sg17
F0.7279367509046731
sg18
I0
sg19
I0
sg20
g30
sg21
g30
sg22
I0
sg23
I0
sg24
I0
sg25
F0.0002683863970371857
sg26
I0
sg27
I0
ssS'STABLER FRANK'
p286
(dp287
g3
g30
sg4
I0
sg5
I0
sg6
F0.07158760361306125
sg7
I00
sg8
I0
sg9
S'frank.stabler@enron.com'
p288
sg11
I0
sg12
I0
sg13
g30
sg14
I0
sg15
g30
sg16
F0.03437050030372422
sg17
I0
sg18
F0.05422446406052964
sg19
F0.011307829807566077
sg20
g30
sg21
g30
sg22
F0.1794420697143368
sg23
F0.2151864318889142
sg24
I0
sg25
F0.010737184354001986
sg26
I0
sg27
I0
ssS'SKILLING JEFFREY K'
p289
(dp290
g3
I3627
sg4
I0
sg5
F0.03159303882195449
sg6
F0.1276731623034359
sg7
I01
sg8
I0
sg9
S'jeff.skilling@enron.com'
p291
sg11
F0.3645981224972721
sg12
I0
sg13
I2042
sg14
I0
sg15
I108
sg16
F0.0021351914003139272
sg17
I0
sg18
F0.6973518284993695
sg19
F0.5317507033126446
sg20
I88
sg21
I30
sg22
F0.5440551591529837
sg23
F1.0
sg24
F0.03253377446925834
sg25
F0.08384122985357859
sg26
F1.0925925925925926
sg27
F0.5603918917223095
ssS'BLAKE JR. NORMAN P'
p292
(dp293
g3
g30
sg4
I0
sg5
I0
sg6
F0.004947181943442031
sg7
I00
sg8
F0.9677610128917702
sg9
g30
sg11
I0
sg12
I0
sg13
g30
sg14
I0
sg15
g30
sg16
I0
sg17
F0.8210716382199303
sg18
I0
sg19
I0
sg20
g30
sg21
g30
sg22
I0
sg23
I0
sg24
I0
sg25
F1.0921242536124955e-05
sg26
I0
sg27
I0
ssS'SHERRICK JEFFREY B'
p294
(dp295
g3
I613
sg4
I0
sg5
F0.08934169278996865
sg6
I0
sg7
I00
sg8
I0
sg9
S'jeffrey.sherrick@enron.com'
p296
sg11
I0
sg12
I0
sg13
I583
sg14
I0
sg15
I25
sg16
I0
sg17
I0
sg18
I0
sg19
F0.03817704503652396
sg20
I39
sg21
I18
sg22
F0.17335351278093103
sg23
I0
sg24
F0.0929853181076672
sg25
I0
sg26
F2.28
sg27
F0.04143776088693179
ssS'PRENTICE JAMES'
p297
(dp298
g3
g30
sg4
F0.1021286501702277
sg5
I0
sg6
I0
sg7
I00
sg8
I0
sg9
S'james.prentice@enron.com'
p299
sg11
I0
sg12
I0
sg13
g30
sg14
I0
sg15
g30
sg16
I0
sg17
I0
sg18
I0
sg19
F0.02317469660916466
sg20
g30
sg21
g30
sg22
F0.16199868664296083
sg23
I0
sg24
I0
sg25
F0.005448068115722104
sg26
I0
sg27
F0.02570806390745882
ssS'GRAY RODNEY'
p300
(dp301
g3
g30
sg4
F0.030030676209014794
sg5
I0
sg6
I0
sg7
I00
sg8
I0
sg9
g30
sg11
F0.058390401817418544
sg12
I0
sg13
g30
sg14
I0
sg15
g30
sg16
F0.06571900977699509
sg17
I0
sg18
I0
sg19
I0
sg20
g30
sg21
g30
sg22
I0
sg23
F0.005525841727577263
sg24
I0
sg25
F0.011071011299816642
sg26
I0
sg27
I0
ssS'PICKERING MARK R'
p302
(dp303
g3
I898
sg4
I0
sg5
F0.007253886010362694
sg6
F0.1378081053299215
sg7
I00
sg8
I0
sg9
S'mark.pickering@enron.com'
p304
sg11
I0
sg12
I0
sg13
I728
sg14
F0.0
sg15
I67
sg16
I0
sg17
I0
sg18
F0.029003783102143757
sg19
F0.0014829056927844434
sg20
I7
sg21
I0
sg22
I0
sg23
F0.589279074813127
sg24
F0.0077951002227171495
sg25
F0.013388825347943207
sg26
F0.1044776119402985
sg27
F0.0007428425231792169
ssS'THE TRAVEL AGENCY IN THE PARK'
p305
(dp306
g3
g30
sg4
I0
sg5
I0
sg6
I0
sg7
I00
sg8
I0
sg9
g30
sg11
I0
sg12
I0
sg13
g30
sg14
I0
sg15
g30
sg16
F0.034952079335681334
sg17
I0
sg18
I0
sg19
I0
sg20
g30
sg21
g30
sg22
I0
sg23
I0
sg24
I0
sg25
F0.003495067987148855
sg26
I0
sg27
I0
ssS'NOLES JAMES L'
p307
(dp308
g3
g30
sg4
F0.13429854399041885
sg5
I0
sg6
I0
sg7
I00
sg8
I0
sg9
g30
sg11
I0
sg12
F0.0981707490342833
sg13
g30
sg14
I0
sg15
g30
sg16
I0
sg17
I0
sg18
I0
sg19
F0.008398025876583292
sg20
g30
sg21
g30
sg22
F0.1766508405070452
sg23
I0
sg24
I0
sg25
F0.007476396814608625
sg26
I0
sg27
I0
ssS'KEAN STEVEN J'
p309
(dp310
g3
I12754
sg4
I0
sg5
F0.02700763593501768
sg6
F0.1828620169280231
sg7
I00
sg8
I0
sg9
S'steven.kean@enron.com'
p311
sg11
F0.04546245221091085
sg12
I0
sg13
I3639
sg14
I0
sg15
I6759
sg16
F0.00011863246975523583
sg17
I0
sg18
F0.11727616645649433
sg19
F0.12608767219367814
sg20
I140
sg21
I387
sg22
F0.3878850989946899
sg23
F0.3635829204856763
sg24
F0.04132037007997491
sg25
F0.016873116936621402
sg26
F0.07797011392217784
sg27
F0.05877877947010722
ssS'FOWLER PEGGY'
p312
(dp313
g3
I517
sg4
I0
sg5
F0.0
sg6
I0
sg7
I00
sg8
I0
sg9
S'kulvinder.fowler@enron.com'
p314
sg11
I0
sg12
I0
sg13
I10
sg14
I0
sg15
I36
sg16
I0
sg17
I0
sg18
I0
sg19
F0.0392406373815154
sg20
I0
sg21
I0
sg22
F0.1822311683441797
sg23
I0
sg24
F0.0
sg25
I0
sg26
F0.0
sg27
F0.03847107850817376
ssS'WASAFF GEORGE'
p315
(dp316
g3
I400
sg4
F0.14301254768749166
sg5
F0.06744186046511629
sg6
I0
sg7
I00
sg8
F0.833742489410036
sg9
S'george.wasaff@enron.com'
p317
sg11
F0.025762719477184854
sg12
I0
sg13
I337
sg14
I0
sg15
I30
sg16
F0.00013735883194605417
sg17
I0
sg18
F0.03215636822194199
sg19
F0.04273330131027945
sg20
I22
sg21
I7
sg22
F0.1723266896170166
sg23
F0.23363651340813354
sg24
F0.0725
sg25
F0.009986969345057141
sg26
F0.9666666666666667
sg27
F0.0484778046497988
ssS'WHITE JR THOMAS E'
p318
(dp319
g3
g30
sg4
I0
sg5
I0
sg6
F0.3552041642061982
sg7
I00
sg8
I0
sg9
S'thomas.white@enron.com'
p320
sg11
I0
sg12
I0
sg13
g30
sg14
I0
sg15
g30
sg16
F0.10477698881447359
sg17
I0
sg18
F0.04791929382093316
sg19
F0.3089913976984781
sg20
g30
sg21
g30
sg22
F0.9473332771321552
sg23
F0.2854442054734462
sg24
I0
sg25
F0.018677265647250915
sg26
I0
sg27
F0.03766953765368386
ssS'CHRISTODOULOU DIOMEDES'
p321
(dp322
g3
g30
sg4
I0
sg5
I0
sg6
I0
sg7
I00
sg8
I0
sg9
S'diomedes.christodoulou@enron.com'
p323
sg11
I0
sg12
I0
sg13
g30
sg14
I0
sg15
g30
sg16
I0
sg17
I0
sg18
I0
sg19
F0.12454646015696207
sg20
g30
sg21
g30
sg22
F0.20472085289433764
sg23
I0
sg24
I0
sg25
I0
sg26
I0
sg27
F0.14918780697065395
ssS'ALLEN PHILLIP K'
p324
(dp325
g3
I2902
sg4
F0.45519895121977366
sg5
F0.0219737100255052
sg6
F0.06001355991514118
sg7
I00
sg8
F0.12082905553305459
sg9
S'phillip.allen@enron.com'
p326
sg11
F0.046409024368766386
sg12
F0.09634567351381695
sg13
I1407
sg14
I0
sg15
I2195
sg16
F1.447914602382862e-05
sg17
I0
sg18
F0.5176544766708702
sg19
F0.03608308234920695
sg20
I47
sg21
I65
sg22
F0.15723183630900145
sg23
F0.18138408921290516
sg24
F0.03859407305306685
sg25
F0.04330155824694069
sg26
F0.0510250569476082
sg27
F0.050262076693970224
ssS'SHARP VICTORIA T'
p327
(dp328
g3
I3136
sg4
F0.04440913455721657
sg5
F0.009168704156479218
sg6
F0.508229993657459
sg7
I00
sg8
I0
sg9
S'vicki.sharp@enron.com'
p329
sg11
F0.06952725172377586
sg12
I0
sg13
I2477
sg14
I0
sg15
I136
sg16
F0.00023156980874109906
sg17
I0
sg18
F0.06683480453972257
sg19
F0.010949813394269228
sg20
I24
sg21
I6
sg22
F0.16224364546638456
sg23
F0.2229683438949712
sg24
F0.009566326530612245
sg25
F0.015221788371329393
sg26
F0.22058823529411764
sg27
F0.008088140901850362
ssS'JAEDICKE ROBERT'
p330
(dp331
g3
g30
sg4
I0
sg5
I0
sg6
I0
sg7
I00
sg8
F0.993102145165208
sg9
g30
sg11
I0
sg12
F0.10109721422411819
sg13
g30
sg14
I0
sg15
g30
sg16
I0
sg17
F0.7836660994657413
sg18
I0
sg19
F0.009680623034004581
sg20
g30
sg21
g30
sg22
F0.15251381650683882
sg23
I0
sg24
I0
sg25
F0.0008072835707383895
sg26
I0
sg27
F0.012475287958843851
ssS'WINOKUR JR. HERBERT S'
p332
(dp333
g3
g30
sg4
I0
sg5
I0
sg6
F0.005533320210834809
sg7
I00
sg8
F0.993102145165208
sg9
g30
sg11
I0
sg12
I0
sg13
g30
sg14
I0
sg15
g30
sg16
I0
sg17
F0.782395470318549
sg18
I0
sg19
I0
sg20
g30
sg21
g30
sg22
I0
sg23
I0
sg24
I0
sg25
F0.0008192766593589617
sg26
I0
sg27
I0
ssS'BROWN MICHAEL'
p334
(dp335
g3
I1486
sg4
I0
sg5
F0.0091683038637852
sg6
F0.21494652581851584
sg7
I00
sg8
I0
sg9
S'michael.brown@enron.com'
p336
sg11
I0
sg12
I0
sg13
I761
sg14
I0
sg15
I41
sg16
I0
sg17
I0
sg18
I0
sg19
I0
sg20
I13
sg21
I1
sg22
I0
sg23
I0
sg24
F0.009421265141318977
sg25
F0.0004745091584661187
sg26
F0.34146341463414637
sg27
I0
ssS'BADUM JAMES P'
p337
(dp338
g3
g30
sg4
F0.04310903301789267
sg5
I0
sg6
F0.01460096669072458
sg7
I00
sg8
I0
sg9
g30
sg11
I0
sg12
I0
sg13
g30
sg14
I0
sg15
g30
sg16
I0
sg17
I0
sg18
I0
sg19
F0.006142103383251037
sg20
g30
sg21
g30
sg22
I0
sg23
I0
sg24
I0
sg25
F0.0017605120218401676
sg26
I0
sg27
F0.007411013722802197
ssS'HUGHES JAMES A'
p339
(dp340
g3
I719
sg4
I0
sg5
F0.05312084993359894
sg6
I0
sg7
I00
sg8
I0
sg9
S'james.hughes@enron.com'
p341
sg11
I0
sg12
I0
sg13
I589
sg14
I0
sg15
I34
sg16
I0
sg17
I0
sg18
I0
sg19
F0.02364981397000877
sg20
I35
sg21
I5
sg22
F0.17090213946829078
sg23
I0
sg24
F0.055632823365785816
sg25
I0
sg26
F1.1764705882352942
sg27
F0.02188612121921675
ssS'REYNOLDS LAWRENCE'
p342
(dp343
g3
g30
sg4
F0.023564627558967086
sg5
I0
sg6
F0.036134986768147324
sg7
I00
sg8
F0.9431528508345671
sg9
g30
sg11
F0.017144086406179728
sg12
F0.09552003720785657
sg13
g30
sg14
I0
sg15
g30
sg16
F0.01950340969409715
sg17
I0
sg18
F0.0037831021437578815
sg19
F0.0867878333254771
sg20
g30
sg21
g30
sg22
F0.1615768323081225
sg23
F0.06835010681673526
sg24
I0
sg25
F0.003807728386863435
sg26
I0
sg27
F0.12104746007574473
ssS'DIMICHELE RICHARD G'
p344
(dp345
g3
g30
sg4
I0
sg5
I0
sg6
F0.15600026244997048
sg7
I00
sg8
I0
sg9
S'richard.dimichele@enron.com'
p346
sg11
F0.12324921087795603
sg12
I0
sg13
g30
sg14
I0
sg15
g30
sg16
F0.03616765190820183
sg17
I0
sg18
F0.11727616645649433
sg19
F0.17011526854964149
sg20
g30
sg21
g30
sg22
F0.15723183630900145
sg23
F0.23615006018288034
sg24
I0
sg25
F0.022866078770354997
sg26
I0
sg27
F0.2384174231088983
ssS'BHATNAGAR SANJAY'
p347
(dp348
g3
I523
sg4
I0
sg5
F0.0018115942028985507
sg6
I0
sg7
I00
sg8
I0
sg9
S'sanjay.bhatnagar@enron.com'
p349
sg11
I0
sg12
F1.0
sg13
I463
sg14
I0
sg15
I29
sg16
F0.013307493527580408
sg17
F1.0
sg18
I0
sS'total_stock_value'
p350
I0
sg20
I0
sg21
I1
sg22
F0.0
sg23
I0
sg24
F0.0019120458891013384
sg25
F0.1492486962464964
sg26
F0.034482758620689655
sg27
F0.07573729806398287
ssS'CARTER REBECCA C'
p351
(dp352
g3
I312
sg4
I0
sg5
F0.11009174311926606
sg6
I0
sg7
I00
sg8
F0.9546292006999751
sg9
S'rebecca.carter@enron.com'
p353
sg11
F0.001138053560027351
sg12
F0.08583317820394383
sg13
I196
sg14
I0
sg15
I15
sg16
F5.1931870405465315e-05
sg17
I0
sg18
F0.029003783102143757
sg19
I0
sg20
I29
sg21
I7
sg22
F0.1676701686449942
sg23
F0.23526869833027392
sg24
F0.11538461538461539
sg25
F0.004609990696665675
sg26
F2.4
sg27
I0
ssS'BUCHANAN HAROLD G'
p354
(dp355
g3
I1088
sg4
I0
sg5
F0.0
sg6
F0.001977123110906983
sg7
I00
sg8
I0
sg9
S'john.buchanan@enron.com'
p356
sg11
F0.046409024368766386
sg12
I0
sg13
I23
sg14
I0
sg15
I125
sg16
F0.00011708802751269411
sg17
I0
sg18
F0.05422446406052964
sg19
F0.021536280207024548
sg20
I0
sg21
I0
sg22
F0.16086038245362366
sg23
F0.22285220939141018
sg24
F0.0
sg25
F0.010182431583267787
sg26
F0.0
sg27
F0.023938757608472756
ssS'YEAP SOON'
p357
(dp358
g3
g30
sg4
I0
sg5
I0
sg6
F0.24035605712661023
sg7
I00
sg8
I0
sg9
g30
sg11
I0
sg12
I0
sg13
g30
sg14
I0
sg15
g30
sg16
I0
sg17
I0
sg18
I0
sg19
F0.004818533100680307
sg20
g30
sg21
g30
sg22
I0
sg23
I0
sg24
I0
sg25
F0.0005306024368855263
sg26
I0
sg27
F0.0055167405398947895
ssS'MURRAY JULIA H'
p359
(dp360
g3
I2192
sg4
I0
sg5
F0.00581135449262405
sg6
F0.2512171117380749
sg7
I00
sg8
I0
sg9
S'julia.murray@enron.com'
p361
sg11
F0.010987919926890351
sg12
I0
sg13
I395
sg14
I0
sg15
I45
sg16
F3.166106597210525e-05
sg17
I0
sg18
F0.0416141235813367
sg19
F0.013051873054679327
sg20
I11
sg21
I2
sg22
F0.16131770802382378
sg23
F0.205987498885919
sg24
F0.005930656934306569
sg25
F0.007841336265685344
sg26
F0.28888888888888886
sg27
F0.011564765033869898
ssS'GARLAND C KEVIN'
p362
(dp363
g3
I209
sg4
I0
sg5
F0.14624505928853754
sg6
F0.21108413708636792
sg7
I00
sg8
I0
sg9
S'kevin.garland@enron.com'
p364
sg11
F0.060297138948715884
sg12
I0
sg13
I178
sg14
I0
sg15
I44
sg16
F0.00587003885334044
sg17
I0
sg18
F0.09836065573770492
sg19
F0.01912850895196666
sg20
I10
sg21
I27
sg22
F0.16494107168276
sg23
F0.20838401088963532
sg24
F0.17703349282296652
sg25
F0.015124820097635522
sg26
F0.8409090909090909
sg27
F0.018429441708699108
ssS'DODSON KEITH'
p365
(dp366
g3
I176
sg4
I0
sg5
F0.06842105263157895
sg6
F0.12254663954683638
sg7
I00
sg8
I0
sg9
S'keith.dodson@enron.com'
p367
sg11
I0
sg12
I0
sg13
I114
sg14
I0
sg15
I14
sg16
F7.451933820263797e-05
sg17
I0
sg18
F0.0
sg19
I0
sg20
I10
sg21
I3
sg22
I0
sg23
F0.19853238397127787
sg24
F0.07386363636363637
sg25
F0.0030880078818346663
sg26
F0.9285714285714286
sg27
I0
ssS'YEAGER F SCOTT'
p368
(dp369
g3
g30
sg4
I0
sg5
I0
sg6
F0.2353257660258513
sg7
I01
sg8
I0
sg9
S'scott.yeager@enron.com'
p370
sg11
I0
sg12
I0
sg13
g30
sg14
I0
sg15
g30
sg16
F0.014281071306222644
sg17
I0
sg18
I0
sg19
F0.2426823758252377
sg20
g30
sg21
g30
sg22
F0.3559040949928896
sg23
F0.1421756403827577
sg24
I0
sg25
F0.0034777253243770774
sg26
I0
sg27
F0.2418181120980318
ssS'HIRKO JOSEPH'
p371
(dp372
g3
g30
sg4
F0.017269189477279238
sg5
I0
sg6
F0.3404413533670144
sg7
I01
sg8
I0
sg9
S'joe.hirko@enron.com'
p373
sg11
I0
sg12
I0
sg13
g30
sg14
I0
sg15
g30
sg16
F0.0002754898850133792
sg17
I0
sg18
I0
sg19
F0.6268065633738387
sg20
g30
sg21
g30
sg22
I0
sg23
I0
sg24
I0
sg25
F0.0008781895689194376
sg26
I0
sg27
F0.8956963262793332
ssS'DIETRICH JANET R'
p374
(dp375
g3
I2572
sg4
I0
sg5
F0.12106261859582543
sg6
F0.014552850862804279
sg7
I00
sg8
I0
sg9
S'janet.dietrich@enron.com'
p376
sg11
F0.09597571889742172
sg12
I0
sg13
I1902
sg14
I0
sg15
I63
sg16
F4.546451851482187e-05
sg17
I0
sg18
F0.06683480453972257
sg19
F0.03884065097954759
sg20
I305
sg21
I14
sg22
F0.1681174171596938
sg23
F0.22472746653030615
sg24
F0.12402799377916018
sg25
F0.013618393535435546
sg26
F5.063492063492063
sg27
F0.04503507181621459
ssS'DERRICK JR. JAMES V'
p377
(dp378
g3
I2181
sg4
I0
sg5
F0.027184466019417475
sg6
F0.22297749491503183
sg7
I00
sg8
F0.6337526505236256
sg9
S'james.derrick@enron.com'
p379
sg11
F0.08170996044096669
sg12
F0.0
sg13
I1401
sg14
I0
sg15
I909
sg16
F0.0007220267483882539
sg17
I0
sg18
F0.09205548549810845
sg19
F0.18057482853286244
sg20
I64
sg21
I20
sg22
F0.2528978156628998
sg23
F0.4428397676949822
sg24
F0.03851444291609354
sg25
F0.0053189927408499715
sg26
F0.0924092409240924
sg27
F0.25705641436642823
ssS'FREVERT MARK A'
p380
(dp381
g3
I3275
sg4
F1.0
sg5
F0.07524271844660194
sg6
F0.37984821643374234
sg7
I00
sg8
F0.03921019604955313
sg9
S'mark.frevert@enron.com'
p382
sg11
F0.304910099284683
sg12
I0
sg13
I2979
sg14
F0.019722650231124808
sg15
I21
sg16
F0.7169705340690927
sg17
I0
sg18
F0.24337957124842372
sg19
F0.29837301090888096
sg20
I242
sg21
I6
sg22
F0.39117154350086353
sg23
F0.9546931393316954
sg24
F0.07572519083969466
sg25
F0.1665936765233214
sg26
F11.80952380952381
sg27
F0.30368912315553376
ssS'PAI LOU L'
p383
(dp384
g3
g30
sg4
I0
sg5
I0
sg6
F0.13953152680270323
sg7
I00
sg8
I0
sg9
S'lou.pai@enron.com'
p385
sg11
I0
sg12
I0
sg13
g30
sg14
I0
sg15
g30
sg16
F0.17659297392682258
sg17
I0
sg18
F0.11727616645649433
sg19
F0.48545265873774984
sg20
g30
sg21
g30
sg22
F0.6367693098264996
sg23
F0.2353317170531365
sg24
I0
sg25
F0.030158803653681895
sg26
I0
sg27
F0.44725106193463005
ssS'BAY FRANKLIN R'
p386
(dp387
g3
g30
sg4
F0.055587036659831016
sg5
I0
sg6
F0.564241191522866
sg7
I00
sg8
F0.9426844691660152
sg9
S'frank.bay@enron.com'
p388
sg11
I0
sg12
F0.09885355031730485
sg13
g30
sg14
I0
sg15
g30
sg16
F6.46735189064345e-06
sg17
I0
sg18
F0.0416141235813367
sg19
F0.0021790012489479277
sg20
g30
sg21
g30
sg22
F0.1583701980815129
sg23
F0.2153385770912538
sg24
I0
sg25
F0.007991027779208784
sg26
I0
sg27
I0
ssS'HAYSLETT RODERICK J'
p389
(dp390
g3
I2649
sg4
I0
sg5
F0.019676549865229112
sg6
I0
sg7
I00
sg8
I0
sg9
S'rod.hayslett@enron.com'
p391
sg11
I0
sg12
I0
sg13
I571
sg14
I0
sg15
I1061
sg16
I0
sg17
I0
sg18
I0
sg19
F0.00794960004513147
sg20
I35
sg21
I38
sg22
F0.1699367575513423
sg23
I0
sg24
F0.027557568893922236
sg25
I0
sg26
F0.06880301602262016
sg27
I0
ssS'FUGH JOHN L'
p392
(dp393
g3
g30
sg4
F0.023446088438760147
sg5
I0
sg6
I0
sg7
I00
sg8
I0
sg9
g30
sg11
I0
sg12
I0
sg13
g30
sg14
I0
sg15
g30
sg16
I0
sg17
I0
sg18
I0
sg19
F0.004485295866346724
sg20
g30
sg21
g30
sg22
I0
sg23
I0
sg24
I0
sg25
F0.0004870912796195854
sg26
I0
sg27
F0.005039816597995539
ssS'FALLON JAMES B'
p394
(dp395
g3
I1755
sg4
I0
sg5
F0.04316939890710383
sg6
F0.418940139535901
sg7
I00
sg8
I0
sg9
S'jim.fallon@enron.com'
p396
sg11
F0.06010861250645413
sg12
I0
sg13
I1604
sg14
I0
sg15
I75
sg16
F0.03875382044333794
sg17
I0
sg18
F0.3064312736443884
sg19
F0.04834771804004181
sg20
I42
sg21
I37
sg22
F0.23013875702341977
sg23
F0.2737812404065248
sg24
F0.045014245014245016
sg25
F0.03549830631420183
sg26
F1.0533333333333332
sg27
F0.02728109766112481
ssS'KOENIG MARK E'
p397
(dp398
g3
I2374
sg4
I0
sg5
F0.02792607802874743
sg6
F0.5549460884018984
sg7
I01
sg8
I0
sg9
S'mark.koenig@enron.com'
p399
sg11
F0.04546245221091085
sg12
I0
sg13
I2271
sg14
I0
sg15
I61
sg16
F0.01452316262774106
sg17
I0
sg18
F0.07944514501891552
sg19
F0.039958928409147616
sg20
I53
sg21
I15
sg22
F0.2218569145645353
sg23
F0.2786048735079192
sg24
F0.02864363942712721
sg25
F0.01532713828827822
sg26
F1.1147540983606556
sg27
F0.01946280603238325
ssS'SAVAGE FRANK'
p400
(dp401
g3
g30
sg4
I0
sg5
I0
sg6
I0
sg7
I00
sg8
F0.9656203288490284
sg9
g30
sg11
I0
sg12
I0
sg13
g30
sg14
I0
sg15
g30
sg16
I0
sg17
F0.9046656610615327
sg18
I0
sg19
I0
sg20
g30
sg21
g30
sg22
I0
sg23
I0
sg24
I0
sg25
F3.478188825386568e-05
sg26
I0
sg27
I0
ssS'IZZO LAWRENCE L'
p402
(dp403
g3
I496
sg4
I0
sg5
F0.06407766990291262
sg6
F0.1222360737484417
sg7
I00
sg8
I0
sg9
S'larry.izzo@enron.com'
p404
sg11
F0.04792491880262661
sg12
I0
sg13
I437
sg14
I0
sg15
I19
sg16
F0.14997760076110114
sg17
I0
sg18
I0
sg19
F0.11929960124848815
sg20
I28
sg21
I5
sg22
F0.36043024765832266
sg23
F0.07633998060823871
sg24
F0.06653225806451613
sg25
F0.01911408637988282
sg26
F1.736842105263158
sg27
F0.06294601159833606
ssS'TILNEY ELIZABETH A'
p405
(dp406
g3
I460
sg4
I0
sg5
F0.04384133611691023
sg6
I0
sg7
I00
sg8
F0.8361186486974794
sg9
S'elizabeth.tilney@enron.com'
p407
sg11
F0.04053751902747935
sg12
I0
sg13
I379
sg14
I0
sg15
I19
sg16
F0.014677317269074754
sg17
I0
sg18
F0.029003783102143757
sg19
F0.02465986050298763
sg20
I10
sg21
I11
sg22
F0.1831883158672049
sg23
F0.22224092777964333
sg24
F0.04565217391304348
sg25
F0.003855217927794171
sg26
F1.105263157894737
sg27
F0.01711932756402886
ssS'MARTIN AMANDA K'
p408
(dp409
g3
I1522
sg4
F0.028781727209935232
sg5
F0.0045662100456621
sg6
F0.035268901865581875
sg7
I00
sg8
I0
sg9
S'a..martin@enron.com'
p410
sg11
F1.0
sg12
I0
sg13
I477
sg14
I0
sg15
I230
sg16
F0.27205852046101214
sg17
I0
sg18
I0
sg19
F0.043015657816708984
sg20
I8
sg21
I0
sg22
I0
sg23
F0.3142023495180418
sg24
F0.005256241787122208
sg25
F0.08117899593031629
sg26
F0.034782608695652174
sg27
F0.060183870775856546
ssS'BUY RICHARD B'
p411
(dp412
g3
I3523
sg4
F0.11518265591952817
sg5
F0.04960664335664336
sg6
I0
sg7
I00
sg8
F0.8019070925999978
sg9
S'rick.buy@enron.com'
p413
sg11
F0.13802401042825052
sg12
I0
sg13
I2333
sg14
I0
sg15
I1053
sg16
F0.03866607681843354
sg17
I0
sg18
F0.10466582597730138
sg19
F0.07097186116718356
sg20
I156
sg21
I71
sg22
F0.20189507378247287
sg23
F0.2971503833789019
sg24
F0.06443372126028953
sg25
F0.022745867852289374
sg26
F0.21557454890788225
sg27
F0.07394149599044685
ssS'GRAMM WENDY L'
p414
(dp415
g3
g30
sg4
I0
sg5
I0
sg6
I0
sg7
I00
sg8
I0
sg9
g30
sg11
I0
sg12
I0
sg13
g30
sg14
I0
sg15
g30
sg16
I0
sg17
F0.8619992718031788
sg18
I0
sg19
I0
sg20
g30
sg21
g30
sg22
I0
sg23
I0
sg24
I0
sg25
F0.0011504867557242014
sg26
I0
sg27
I0
ssS'CAUSEY RICHARD A'
p416
(dp417
g3
I1892
sg4
I0
sg5
F0.03606388459556929
sg6
F0.13352579664501454
sg7
I01
sg8
F0.9331629919684389
sg9
S'richard.causey@enron.com'
p418
sg11
F0.055312318577773856
sg12
I0
sg13
I1585
sg14
I0
sg15
I49
sg16
F0.0297201847114311
sg17
I0
sg18
F0.11727616645649433
sg19
F0.05179938849950292
sg20
I58
sg21
I12
sg22
F0.29405153141300355
sg23
F0.3733517227968429
sg24
F0.03699788583509514
sg25
F0.018043804611342574
sg26
F1.4285714285714286
sg27
I0
ssS'TAYLOR MITCHELL S'
p419
(dp420
g3
I533
sg4
F0.0505321242547274
sg5
F0.0
sg6
I0
sg7
I00
sg8
I0
sg9
S'mitchell.taylor@enron.com'
p421
sg11
I0
sg12
I0
sg13
I300
sg14
I0
sg15
I29
sg16
I0
sg17
I0
sg18
F0.06683480453972257
sg19
F0.0770868661379723
sg20
I0
sg21
I0
sg22
F0.18244008010049875
sg23
F0.23833410906380287
sg24
F0.0
sg25
F0.010549620945494744
sg26
F0.0
sg27
F0.09253037820621801
ssS'DONAHUE JR JEFFREY M'
p422
(dp423
g3
I865
sg4
I0
sg5
F0.22435174746335965
sg6
F0.4204448526999541
sg7
I00
sg8
F0.9146103969313437
sg9
S'jeff.donahue@enron.com'
p424
sg11
I0
sg12
I0
sg13
I772
sg14
I0
sg15
I22
sg16
F8.581307210122428e-05
sg17
I0
sg18
F0.09205548549810845
sg19
F0.02288882056417959
sg20
I188
sg21
I11
sg22
F0.1681174171596938
sg23
F0.25038598967753317
sg24
F0.2300578034682081
sg25
F0.008455146790045486
sg26
F9.045454545454545
sg27
F0.022205060465832403
ssS'GLISAN JR BEN F'
p425
(dp426
g3
I873
sg4
I0
sg5
F0.06524184476940383
sg6
F0.5504013297465171
sg7
I01
sg8
I0
sg9
S'ben.glisan@enron.com'
p427
sg11
F0.000354595189207068
sg12
I0
sg13
I874
sg14
I0
sg15
I16
sg16
F0.019335065489660103
sg17
I0
sg18
F0.06683480453972257
sg19
F0.016735894091266437
sg20
I52
sg21
I6
sg22
F0.17265209213492153
sg23
F0.24712161983325245
sg24
F0.06643757159221077
sg25
F0.012284090004364152
sg26
F3.625
sg27
F0.011106184320505235
ss.